target datalayout = "e-m:e-p270:32:32-p271:32:32-p272:64:64-i64:64-i128:128-f80:128-n8:16:32:64-S128"
target triple = "x86_64-pc-linux-gnu"

%struct.archive_read_disk = type { %struct.archive, ptr, i8, i8, ptr, ptr, ptr, ptr, i32, ptr, ptr, ptr, ptr, ptr, ptr, ptr, ptr, ptr, ptr, ptr }
%struct.archive = type { i32, i32, ptr, i32, ptr, i32, i32, ptr, %struct.archive_string, ptr, i32, i32, ptr, ptr, i64, i64, i64, i8, i64 }
%struct.archive_string = type { ptr, i64, i64 }

@.str.1 = private unnamed_addr constant [24 x i8] c"archive_read_disk_uname\00", align 1

; Function Attrs: nounwind uwtable
define dso_local ptr @archive_read_disk_uname(ptr noundef %0, i64 noundef %1) #0 {
  %3 = alloca ptr, align 8
  %4 = alloca ptr, align 8
  %5 = alloca i64, align 8
  %6 = alloca ptr, align 8
  store ptr %0, ptr %4, align 8
  store i64 %1, ptr %5, align 8
  %7 = load ptr, ptr %4, align 8
  store ptr %7, ptr %6, align 8
  %8 = load ptr, ptr %4, align 8
  %9 = call i32 @__archive_check_magic(ptr noundef %8, i32 noundef 195932357, i32 noundef 32767, ptr noundef @.str.1)
  %10 = icmp ne i32 0, %9
  br i1 %10, label %11, label %12

11:                                               ; preds = %2
  store ptr null, ptr %3, align 8
  br label %27

12:                                               ; preds = %2
  %13 = load ptr, ptr %6, align 8
  %14 = getelementptr inbounds %struct.archive_read_disk, ptr %13, i32 0, i32 12
  %15 = load ptr, ptr %14, align 8
  %16 = icmp eq ptr %15, null
  br i1 %16, label %17, label %18

17:                                               ; preds = %12
  store ptr null, ptr %3, align 8
  br label %27

18:                                               ; preds = %12
  %19 = load ptr, ptr %6, align 8
  %20 = getelementptr inbounds %struct.archive_read_disk, ptr %19, i32 0, i32 12
  %21 = load ptr, ptr %20, align 8
  %22 = load ptr, ptr %6, align 8
  %23 = getelementptr inbounds %struct.archive_read_disk, ptr %22, i32 0, i32 14
  %24 = load ptr, ptr %23, align 8
  %25 = load i64, ptr %5, align 8
  %26 = call ptr %21(ptr noundef %24, i64 noundef %25)
  store ptr %26, ptr %3, align 8
  br label %27

27:                                               ; preds = %18, %17, %11
  %28 = load ptr, ptr %3, align 8
  ret ptr %28
}