; Function Attrs: nounwind uwtable
define dso_local ptr @archive_read_disk_uname(ptr noundef %0, i64 noundef %1) local_unnamed_addr #0 {
  %3 = tail call i32 @__archive_check_magic(ptr noundef %0, i32 noundef 195932357, i32 noundef 32767, ptr noundef nonnull @.str.1) #17
  %.not = icmp eq i32 %3, 0
  br i1 %.not, label %4, label %12

4:                                                ; preds = %2
  %5 = getelementptr inbounds nuw i8, ptr %0, i64 224
  %6 = load ptr, ptr %5, align 8
  %7 = icmp eq ptr %6, null
  br i1 %7, label %12, label %8

8:                                                ; preds = %4
  %9 = getelementptr inbounds nuw i8, ptr %0, i64 240
  %10 = load ptr, ptr %9, align 8
  %11 = tail call ptr %6(ptr noundef %10, i64 noundef %1) #17
  br label %12

12:                                               ; preds = %4, %2, %8
  %.0 = phi ptr [ %11, %8 ], [ null, %2 ], [ null, %4 ]
  ret ptr %.0
}